target datalayout = "e-m:e-p270:32:32-p271:32:32-p272:64:64-i64:64-i128:128-f80:128-n8:16:32:64-S128"
target triple = "x86_64-pc-linux-gnu"

%struct.JNINativeInterface_ = type { ptr, ptr, ptr, ptr, ptr, ptr, ptr, ptr, ptr, ptr, ptr, ptr, ptr, ptr, ptr, ptr, ptr, ptr, ptr, ptr, ptr, ptr, ptr, ptr, ptr, ptr, ptr, ptr, ptr, ptr, ptr, ptr, ptr, ptr, ptr, ptr, ptr, ptr, ptr, ptr, ptr, ptr, ptr, ptr, ptr, ptr, ptr, ptr, ptr, ptr, ptr, ptr, ptr, ptr, ptr, ptr, ptr, ptr, ptr, ptr, ptr, ptr, ptr, ptr, ptr, ptr, ptr, ptr, ptr, ptr, ptr, ptr, ptr, ptr, ptr, ptr, ptr, ptr, ptr, ptr, ptr, ptr, ptr, ptr, ptr, ptr, ptr, ptr, ptr, ptr, ptr, ptr, ptr, ptr, ptr, ptr, ptr, ptr, ptr, ptr, ptr, ptr, ptr, ptr, ptr, ptr, ptr, ptr, ptr, ptr, ptr, ptr, ptr, ptr, ptr, ptr, ptr, ptr, ptr, ptr, ptr, ptr, ptr, ptr, ptr, ptr, ptr, ptr, ptr, ptr, ptr, ptr, ptr, ptr, ptr, ptr, ptr, ptr, ptr, ptr, ptr, ptr, ptr, ptr, ptr, ptr, ptr, ptr, ptr, ptr, ptr, ptr, ptr, ptr, ptr, ptr, ptr, ptr, ptr, ptr, ptr, ptr, ptr, ptr, ptr, ptr, ptr, ptr, ptr, ptr, ptr, ptr, ptr, ptr, ptr, ptr, ptr, ptr, ptr, ptr, ptr, ptr, ptr, ptr, ptr, ptr, ptr, ptr, ptr, ptr, ptr, ptr, ptr, ptr, ptr, ptr, ptr, ptr, ptr, ptr, ptr, ptr, ptr, ptr, ptr, ptr, ptr, ptr, ptr, ptr, ptr, ptr, ptr, ptr, ptr, ptr, ptr, ptr, ptr, ptr, ptr, ptr, ptr, ptr, ptr, ptr, ptr, ptr, ptr, ptr, ptr, ptr, ptr, ptr, ptr }

@.str.8 = private unnamed_addr constant [6 x i8] c"write\00", align 1

; Function Attrs: nounwind uwtable
define void @Java_sun_tools_attach_VirtualMachineImpl_write(ptr noundef %0, ptr noundef %1, i32 noundef %2, ptr noundef %3, i32 noundef %4, i32 noundef %5) #0 {
  %7 = alloca ptr, align 8
  %8 = alloca ptr, align 8
  %9 = alloca i32, align 4
  %10 = alloca ptr, align 8
  %11 = alloca i32, align 4
  %12 = alloca i32, align 4
  %13 = alloca i64, align 8
  %14 = alloca [128 x i8], align 16
  %15 = alloca i64, align 8
  %16 = alloca i32, align 4
  store ptr %0, ptr %7, align 8
  store ptr %1, ptr %8, align 8
  store i32 %2, ptr %9, align 4
  store ptr %3, ptr %10, align 8
  store i32 %4, ptr %11, align 4
  store i32 %5, ptr %12, align 4
  %17 = load i32, ptr %12, align 4
  %18 = sext i32 %17 to i64
  store i64 %18, ptr %13, align 8
  br label %19

19:                                               ; preds = %67, %6
  store i64 128, ptr %15, align 8
  %20 = load i64, ptr %15, align 8
  %21 = load i64, ptr %13, align 8
  %22 = icmp ugt i64 %20, %21
  br i1 %22, label %23, label %25

23:                                               ; preds = %19
  %24 = load i64, ptr %13, align 8
  store i64 %24, ptr %15, align 8
  br label %25

25:                                               ; preds = %23, %19
  %26 = load ptr, ptr %7, align 8
  %27 = load ptr, ptr %26, align 8
  %28 = getelementptr inbounds %struct.JNINativeInterface_, ptr %27, i32 0, i32 200
  %29 = load ptr, ptr %28, align 8
  %30 = load ptr, ptr %7, align 8
  %31 = load ptr, ptr %10, align 8
  %32 = load i32, ptr %11, align 4
  %33 = load i64, ptr %15, align 8
  %34 = trunc i64 %33 to i32
  %35 = getelementptr inbounds [128 x i8], ptr %14, i64 0, i64 0
  call void %29(ptr noundef %30, ptr noundef %31, i32 noundef %32, i32 noundef %34, ptr noundef %35)
  br label %36

36:                                               ; preds = %25
  br label %37

37:                                               ; preds = %50, %36
  %38 = load i32, ptr %9, align 4
  %39 = getelementptr inbounds [128 x i8], ptr %14, i64 0, i64 0
  %40 = load i64, ptr %15, align 8
  %41 = call i64 @write(i32 noundef %38, ptr noundef %39, i64 noundef %40)
  %42 = trunc i64 %41 to i32
  store i32 %42, ptr %16, align 4
  br label %43

43:                                               ; preds = %37
  %44 = load i32, ptr %16, align 4
  %45 = icmp eq i32 %44, -1
  br i1 %45, label %46, label %50

46:                                               ; preds = %43
  %47 = call ptr @__errno_location() #6
  %48 = load i32, ptr %47, align 4
  %49 = icmp eq i32 %48, 4
  br label %50

50:                                               ; preds = %46, %43
  %51 = phi i1 [ false, %43 ], [ %49, %46 ]
  br i1 %51, label %37, label %52, !llvm.loop !8

52:                                               ; preds = %50
  br label %53

53:                                               ; preds = %52
  %54 = load i32, ptr %16, align 4
  %55 = icmp sgt i32 %54, 0
  br i1 %55, label %56, label %64

56:                                               ; preds = %53
  %57 = load i32, ptr %16, align 4
  %58 = load i32, ptr %11, align 4
  %59 = add nsw i32 %58, %57
  store i32 %59, ptr %11, align 4
  %60 = load i32, ptr %16, align 4
  %61 = sext i32 %60 to i64
  %62 = load i64, ptr %13, align 8
  %63 = sub i64 %62, %61
  store i64 %63, ptr %13, align 8
  br label %66

64:                                               ; preds = %53
  %65 = load ptr, ptr %7, align 8
  call void @JNU_ThrowIOExceptionWithLastError(ptr noundef %65, ptr noundef @.str.8)
  br label %70

66:                                               ; preds = %56
  br label %67

67:                                               ; preds = %66
  %68 = load i64, ptr %13, align 8
  %69 = icmp ugt i64 %68, 0
  br i1 %69, label %19, label %70, !llvm.loop !9

70:                                               ; preds = %67, %64
  ret void
}