; Function Attrs: nounwind uwtable
define void @Java_sun_tools_attach_VirtualMachineImpl_write(ptr noundef %0, ptr nocapture noundef readnone %1, i32 noundef %2, ptr noundef %3, i32 noundef %4, i32 noundef %5) local_unnamed_addr #0 {
  %7 = alloca [128 x i8], align 16
  %8 = sext i32 %5 to i64
  br label %9

9:                                                ; preds = %23, %6
  %.019 = phi i64 [ %8, %6 ], [ %26, %23 ]
  %.0 = phi i32 [ %4, %6 ], [ %24, %23 ]
  %spec.select = call i64 @llvm.umin.i64(i64 %.019, i64 128)
  %10 = load ptr, ptr %0, align 8
  %11 = getelementptr inbounds i8, ptr %10, i64 1600
  %12 = load ptr, ptr %11, align 8
  %13 = trunc nuw nsw i64 %spec.select to i32
  call void %12(ptr noundef nonnull %0, ptr noundef %3, i32 noundef %.0, i32 noundef %13, ptr noundef nonnull %7) #11
  br label %14

14:                                               ; preds = %18, %9
  %15 = call i64 @write(i32 noundef %2, ptr noundef nonnull %7, i64 noundef %spec.select) #11
  %16 = trunc i64 %15 to i32
  %17 = icmp eq i32 %16, -1
  br i1 %17, label %18, label %.critedge

18:                                               ; preds = %14
  %19 = tail call ptr @__errno_location() #12
  %20 = load i32, ptr %19, align 4
  %21 = icmp eq i32 %20, 4
  br i1 %21, label %14, label %.critedge.thread, !llvm.loop !8

.critedge:                                        ; preds = %14
  %22 = icmp sgt i32 %16, 0
  br i1 %22, label %23, label %.critedge.thread

23:                                               ; preds = %.critedge
  %24 = add nsw i32 %.0, %16
  %25 = and i64 %15, 2147483647
  %26 = sub i64 %.019, %25
  %.not = icmp eq i64 %26, 0
  br i1 %.not, label %.loopexit, label %9, !llvm.loop !9

.critedge.thread:                                 ; preds = %.critedge, %18
  call void @JNU_ThrowIOExceptionWithLastError(ptr noundef nonnull %0, ptr noundef nonnull @.str.8) #11
  br label %.loopexit

.loopexit:                                        ; preds = %23, %.critedge.thread
  ret void
}